; Function Attrs: nofree norecurse nosync nounwind memory(read, inaccessiblemem: none) uwtable
define range(i32 0, 16777216) i32 @Aig_ManLevels(ptr noundef readonly captures(none) %0) local_unnamed_addr #7 {
  %2 = getelementptr inbounds nuw i8, ptr %0, i64 24
  %3 = load ptr, ptr %2, align 8, !tbaa !31
  %4 = getelementptr i8, ptr %3, i64 4
  %.val = load i32, ptr %4, align 4, !tbaa !22
  %5 = icmp sgt i32 %.val, 0
  br i1 %5, label %.lr.ph, label %.critedge

.lr.ph:                                           ; preds = %1
  %6 = getelementptr i8, ptr %3, i64 8
  %.val8 = load ptr, ptr %6, align 8, !tbaa !24
  %wide.trip.count = zext nneg i32 %.val to i64
  br label %7

7:                                                ; preds = %.lr.ph, %7
  %indvars.iv = phi i64 [ 0, %.lr.ph ], [ %indvars.iv.next, %7 ]
  %.011 = phi i32 [ 0, %.lr.ph ], [ %19, %7 ]
  %8 = getelementptr inbounds nuw ptr, ptr %.val8, i64 %indvars.iv
  %9 = load ptr, ptr %8, align 8, !tbaa !25
  %10 = getelementptr i8, ptr %9, i64 8
  %.val9 = load ptr, ptr %10, align 8, !tbaa !32
  %11 = ptrtoint ptr %.val9 to i64
  %12 = and i64 %11, -2
  %13 = inttoptr i64 %12 to ptr
  %14 = getelementptr inbounds nuw i8, ptr %13, i64 24
  %15 = load i64, ptr %14, align 8
  %16 = lshr i64 %15, 32
  %17 = trunc nuw i64 %16 to i32
  %18 = and i32 %17, 16777215
  %19 = tail call noundef i32 @llvm.smax.i32(i32 %.011, i32 %18)
  %indvars.iv.next = add nuw nsw i64 %indvars.iv, 1
  %exitcond.not = icmp eq i64 %indvars.iv.next, %wide.trip.count
  br i1 %exitcond.not, label %.critedge, label %7, !llvm.loop !33

.critedge:                                        ; preds = %7, %1
  %.0.lcssa = phi i32 [ 0, %1 ], [ %19, %7 ]
  ret i32 %.0.lcssa
}